target datalayout = "e-m:e-p270:32:32-p271:32:32-p272:64:64-i64:64-i128:128-f80:128-n8:16:32:64-S128"
target triple = "x86_64-pc-linux-gnu"

; Function Attrs: nounwind uwtable
define dso_local ptr @construct_array(ptr noundef %0, i32 noundef %1, i32 noundef %2, i32 noundef %3, i1 noundef zeroext %4, i8 noundef signext %5) #0 {
  %7 = alloca ptr, align 8
  %8 = alloca i32, align 4
  %9 = alloca i32, align 4
  %10 = alloca i32, align 4
  %11 = alloca i8, align 1
  %12 = alloca i8, align 1
  %13 = alloca [1 x i32], align 4
  %14 = alloca [1 x i32], align 4
  store ptr %0, ptr %7, align 8
  store i32 %1, ptr %8, align 4
  store i32 %2, ptr %9, align 4
  store i32 %3, ptr %10, align 4
  %15 = zext i1 %4 to i8
  store i8 %15, ptr %11, align 1
  store i8 %5, ptr %12, align 1
  call void @llvm.lifetime.start.p0(i64 4, ptr %13) #11
  call void @llvm.lifetime.start.p0(i64 4, ptr %14) #11
  %16 = load i32, ptr %8, align 4
  %17 = getelementptr inbounds [1 x i32], ptr %13, i64 0, i64 0
  store i32 %16, ptr %17, align 4
  %18 = getelementptr inbounds [1 x i32], ptr %14, i64 0, i64 0
  store i32 1, ptr %18, align 4
  %19 = load ptr, ptr %7, align 8
  %20 = getelementptr inbounds [1 x i32], ptr %13, i64 0, i64 0
  %21 = getelementptr inbounds [1 x i32], ptr %14, i64 0, i64 0
  %22 = load i32, ptr %9, align 4
  %23 = load i32, ptr %10, align 4
  %24 = load i8, ptr %11, align 1, !range !4, !noundef !5
  %25 = trunc i8 %24 to i1
  %26 = load i8, ptr %12, align 1
  %27 = call ptr @construct_md_array(ptr noundef %19, ptr noundef null, i32 noundef 1, ptr noundef %20, ptr noundef %21, i32 noundef %22, i32 noundef %23, i1 noundef zeroext %25, i8 noundef signext %26)
  call void @llvm.lifetime.end.p0(i64 4, ptr %14) #11
  call void @llvm.lifetime.end.p0(i64 4, ptr %13) #11
  ret ptr %27
}