; Function Attrs: nounwind uwtable
define dso_local noundef ptr @construct_array(ptr noundef captures(none) %0, i32 noundef %1, i32 noundef %2, i32 noundef %3, i1 noundef zeroext %4, i8 noundef signext %5) local_unnamed_addr #0 {
  %7 = alloca [1 x i32], align 4
  %8 = alloca [1 x i32], align 4
  call void @llvm.lifetime.start.p0(i64 4, ptr nonnull %7) #18
  call void @llvm.lifetime.start.p0(i64 4, ptr nonnull %8) #18
  store i32 %1, ptr %7, align 4
  store i32 1, ptr %8, align 4
  %9 = call ptr @construct_md_array(ptr noundef %0, ptr noundef null, i32 noundef 1, ptr noundef nonnull %7, ptr noundef nonnull %8, i32 noundef %2, i32 noundef %3, i1 noundef zeroext %4, i8 noundef signext %5)
  call void @llvm.lifetime.end.p0(i64 4, ptr nonnull %8) #18
  call void @llvm.lifetime.end.p0(i64 4, ptr nonnull %7) #18
  ret ptr %9
}